target datalayout = "e-m:e-p270:32:32-p271:32:32-p272:64:64-i64:64-i128:128-f80:128-n8:16:32:64-S128"
target triple = "x86_64-pc-linux-gnu"

%struct.buffer = type { i32, %struct.stat, ptr, i64, i64, ptr, i64 }
%struct.stat = type { i64, i64, i64, i32, i32, i32, i32, i64, i64, i64, i64, %struct.timespec, %struct.timespec, %struct.timespec, [3 x i64] }
%struct.timespec = type { i64, i64 }
%struct.magic_set = type { [2 x ptr], %struct.cont, %struct.out, i32, i32, i32, i32, i32, ptr, i64, i32, i16, %struct.anon, %union.VALUETYPE, i16, i16, i16, i16, i16, i16, i16, i64, i64, i64 }
%struct.cont = type { i64, ptr }
%struct.out = type { ptr, i64, ptr }
%struct.anon = type { ptr, i64, i64, i64 }
%union.VALUETYPE = type { [2 x i64], [112 x i8] }

@.str = private unnamed_addr constant [15 x i8] c"application/%s\00", align 1
@.str.1 = private unnamed_addr constant [5 x i8] c"json\00", align 1
@.str.2 = private unnamed_addr constant [9 x i8] c"x-ndjson\00", align 1
@.str.3 = private unnamed_addr constant [17 x i8] c"%sJSON text data\00", align 1
@.str.4 = private unnamed_addr constant [1 x i8] zeroinitializer, align 1
@.str.5 = private unnamed_addr constant [20 x i8] c"New Line Delimited \00", align 1

; Function Attrs: nounwind uwtable
define hidden i32 @file_is_json(ptr noundef %0, ptr noundef %1) #0 {
  %3 = alloca i32, align 4
  %4 = alloca ptr, align 8
  %5 = alloca ptr, align 8
  %6 = alloca ptr, align 8
  %7 = alloca ptr, align 8
  %8 = alloca [6 x i64], align 16
  %9 = alloca i32, align 4
  %10 = alloca i32, align 4
  %11 = alloca i32, align 4
  store ptr %0, ptr %4, align 8, !tbaa !4
  store ptr %1, ptr %5, align 8, !tbaa !9
  call void @llvm.lifetime.start.p0(i64 8, ptr %6) #4
  %12 = load ptr, ptr %5, align 8, !tbaa !9
  %13 = getelementptr inbounds nuw %struct.buffer, ptr %12, i32 0, i32 2
  %14 = load ptr, ptr %13, align 8, !tbaa !11
  store ptr %14, ptr %6, align 8, !tbaa !17
  call void @llvm.lifetime.start.p0(i64 8, ptr %7) #4
  %15 = load ptr, ptr %6, align 8, !tbaa !17
  %16 = load ptr, ptr %5, align 8, !tbaa !9
  %17 = getelementptr inbounds nuw %struct.buffer, ptr %16, i32 0, i32 3
  %18 = load i64, ptr %17, align 8, !tbaa !19
  %19 = getelementptr inbounds nuw i8, ptr %15, i64 %18
  store ptr %19, ptr %7, align 8, !tbaa !17
  call void @llvm.lifetime.start.p0(i64 48, ptr %8) #4
  call void @llvm.lifetime.start.p0(i64 4, ptr %9) #4
  %20 = load ptr, ptr %4, align 8, !tbaa !4
  %21 = getelementptr inbounds nuw %struct.magic_set, ptr %20, i32 0, i32 6
  %22 = load i32, ptr %21, align 4, !tbaa !20
  %23 = and i32 %22, 1040
  store i32 %23, ptr %9, align 4, !tbaa !27
  call void @llvm.lifetime.start.p0(i64 4, ptr %10) #4
  %24 = load ptr, ptr %4, align 8, !tbaa !4
  %25 = getelementptr inbounds nuw %struct.magic_set, ptr %24, i32 0, i32 6
  %26 = load i32, ptr %25, align 4, !tbaa !20
  %27 = and i32 %26, 16779264
  %28 = icmp ne i32 %27, 0
  br i1 %28, label %29, label %30

29:                                               ; preds = %2
  store i32 0, ptr %3, align 4
  store i32 1, ptr %11, align 4
  br label %62

30:                                               ; preds = %2
  %31 = getelementptr inbounds [6 x i64], ptr %8, i64 0, i64 0
  call void @llvm.memset.p0.i64(ptr align 16 %31, i8 0, i64 48, i1 false)
  %32 = load ptr, ptr %7, align 8, !tbaa !17
  %33 = getelementptr inbounds [6 x i64], ptr %8, i64 0, i64 0
  %34 = call i32 @json_parse(ptr noundef %6, ptr noundef %32, ptr noundef %33, i64 noundef 0)
  store i32 %34, ptr %10, align 4, !tbaa !27
  %35 = icmp eq i32 %34, 0
  br i1 %35, label %36, label %37

36:                                               ; preds = %30
  store i32 0, ptr %3, align 4
  store i32 1, ptr %11, align 4
  br label %62

37:                                               ; preds = %30
  %38 = load i32, ptr %9, align 4, !tbaa !27
  %39 = icmp eq i32 %38, 1024
  br i1 %39, label %40, label %41

40:                                               ; preds = %37
  store i32 1, ptr %3, align 4
  store i32 1, ptr %11, align 4
  br label %62

41:                                               ; preds = %37
  %42 = load i32, ptr %9, align 4, !tbaa !27
  %43 = icmp ne i32 %42, 0
  br i1 %43, label %44, label %53

44:                                               ; preds = %41
  %45 = load ptr, ptr %4, align 8, !tbaa !4
  %46 = load i32, ptr %10, align 4, !tbaa !27
  %47 = icmp eq i32 %46, 1
  %48 = select i1 %47, ptr @.str.1, ptr @.str.2
  %49 = call i32 (ptr, ptr, ...) @file_printf(ptr noundef %45, ptr noundef @.str, ptr noundef %48)
  %50 = icmp eq i32 %49, -1
  br i1 %50, label %51, label %52

51:                                               ; preds = %44
  store i32 -1, ptr %3, align 4
  store i32 1, ptr %11, align 4
  br label %62

52:                                               ; preds = %44
  store i32 1, ptr %3, align 4
  store i32 1, ptr %11, align 4
  br label %62

53:                                               ; preds = %41
  %54 = load ptr, ptr %4, align 8, !tbaa !4
  %55 = load i32, ptr %10, align 4, !tbaa !27
  %56 = icmp eq i32 %55, 1
  %57 = select i1 %56, ptr @.str.4, ptr @.str.5
  %58 = call i32 (ptr, ptr, ...) @file_printf(ptr noundef %54, ptr noundef @.str.3, ptr noundef %57)
  %59 = icmp eq i32 %58, -1
  br i1 %59, label %60, label %61

60:                                               ; preds = %53
  store i32 -1, ptr %3, align 4
  store i32 1, ptr %11, align 4
  br label %62

61:                                               ; preds = %53
  store i32 1, ptr %3, align 4
  store i32 1, ptr %11, align 4
  br label %62

62:                                               ; preds = %61, %60, %52, %51, %40, %36, %29
  call void @llvm.lifetime.end.p0(i64 4, ptr %10) #4
  call void @llvm.lifetime.end.p0(i64 4, ptr %9) #4
  call void @llvm.lifetime.end.p0(i64 48, ptr %8) #4
  call void @llvm.lifetime.end.p0(i64 8, ptr %7) #4
  call void @llvm.lifetime.end.p0(i64 8, ptr %6) #4
  %63 = load i32, ptr %3, align 4
  ret i32 %63
}