; Function Attrs: nounwind uwtable
define hidden range(i32 -1, 2) i32 @file_is_json(ptr noundef %0, ptr noundef readonly captures(none) %1) local_unnamed_addr #0 {
  %3 = alloca ptr, align 8
  %4 = alloca [6 x i64], align 16
  call void @llvm.lifetime.start.p0(i64 8, ptr nonnull %3) #6
  %5 = getelementptr inbounds nuw i8, ptr %1, i64 152
  %6 = load ptr, ptr %5, align 8, !tbaa !4
  store ptr %6, ptr %3, align 8, !tbaa !13
  %7 = getelementptr inbounds nuw i8, ptr %1, i64 160
  %8 = load i64, ptr %7, align 8, !tbaa !15
  call void @llvm.lifetime.start.p0(i64 48, ptr nonnull %4) #6
  %9 = getelementptr inbounds nuw i8, ptr %0, i64 68
  %10 = load i32, ptr %9, align 4, !tbaa !16
  %11 = and i32 %10, 1040
  %12 = and i32 %10, 16779264
  %.not = icmp eq i32 %12, 0
  br i1 %.not, label %13, label %28

13:                                               ; preds = %2
  %14 = getelementptr inbounds nuw i8, ptr %6, i64 %8
  call void @llvm.memset.p0.i64(ptr noundef nonnull align 16 dereferenceable(48) %4, i8 0, i64 48, i1 false)
  %15 = call fastcc i32 @json_parse(ptr noundef %3, ptr noundef %14, ptr noundef %4, i64 noundef 0)
  %16 = icmp eq i32 %15, 0
  br i1 %16, label %28, label %17

17:                                               ; preds = %13
  switch i32 %11, label %18 [
    i32 1024, label %28
    i32 0, label %23
  ]

18:                                               ; preds = %17
  %19 = icmp eq i32 %15, 1
  %20 = select i1 %19, ptr @.str.1, ptr @.str.2
  %21 = call i32 (ptr, ptr, ...) @file_printf(ptr noundef nonnull %0, ptr noundef nonnull @.str, ptr noundef nonnull %20) #6
  %22 = icmp eq i32 %21, -1
  %. = select i1 %22, i32 -1, i32 1
  br label %28

23:                                               ; preds = %17
  %24 = icmp eq i32 %15, 1
  %25 = select i1 %24, ptr @.str.4, ptr @.str.5
  %26 = call i32 (ptr, ptr, ...) @file_printf(ptr noundef nonnull %0, ptr noundef nonnull @.str.3, ptr noundef nonnull %25) #6
  %27 = icmp eq i32 %26, -1
  %.14 = select i1 %27, i32 -1, i32 1
  br label %28

28:                                               ; preds = %23, %18, %17, %13, %2
  %.0 = phi i32 [ 0, %2 ], [ 0, %13 ], [ 1, %17 ], [ %., %18 ], [ %.14, %23 ]
  call void @llvm.lifetime.end.p0(i64 48, ptr nonnull %4) #6
  call void @llvm.lifetime.end.p0(i64 8, ptr nonnull %3) #6
  ret i32 %.0
}